target datalayout = "e-m:e-p270:32:32-p271:32:32-p272:64:64-i64:64-i128:128-f80:128-n8:16:32:64-S128"
target triple = "x86_64-pc-linux-gnu"

%struct.sfparse_parser = type { ptr, ptr, i32 }
%struct.sfparse_value = type { i32, i32, %union.anon }
%union.anon = type { %struct.sfparse_decimal }
%struct.sfparse_decimal = type { i64, i64 }
%struct.sfparse_vec = type { ptr, i64 }

@.str.1 = private unnamed_addr constant [107 x i8] c"generated/home/dtcxzyw/WorkSpace/Projects/compilers/llvm-opt-benchmark/bench/nghttp2/nghttp2/lib/sfparse.c\00", align 1
@.str.4 = private unnamed_addr constant [17 x i8] c"'\22' == *sfp->pos\00", align 1
@__PRETTY_FUNCTION__.parser_string = private unnamed_addr constant [53 x i8] c"int parser_string(sfparse_parser *, sfparse_value *)\00", align 1

; Function Attrs: nounwind uwtable
define internal i32 @parser_eof(ptr noundef %0) #0 {
  %2 = alloca ptr, align 8
  store ptr %0, ptr %2, align 8, !tbaa !3
  %3 = load ptr, ptr %2, align 8, !tbaa !3
  %4 = getelementptr inbounds nuw %struct.sfparse_parser, ptr %3, i32 0, i32 0
  %5 = load ptr, ptr %4, align 8, !tbaa !17
  %6 = load ptr, ptr %2, align 8, !tbaa !3
  %7 = getelementptr inbounds nuw %struct.sfparse_parser, ptr %6, i32 0, i32 1
  %8 = load ptr, ptr %7, align 8, !tbaa !22
  %9 = icmp eq ptr %5, %8
  %10 = zext i1 %9 to i32
  ret i32 %10
}

; Function Attrs: nounwind uwtable
define internal i32 @parser_string(ptr noundef %0, ptr noundef %1) #0 {
  %3 = alloca i32, align 4
  %4 = alloca ptr, align 8
  %5 = alloca ptr, align 8
  %6 = alloca ptr, align 8
  %7 = alloca i32, align 4
  %8 = alloca i32, align 4
  store ptr %0, ptr %4, align 8, !tbaa !3
  store ptr %1, ptr %5, align 8, !tbaa !10
  call void @llvm.lifetime.start.p0(i64 8, ptr %6) #5
  call void @llvm.lifetime.start.p0(i64 4, ptr %7) #5
  store i32 0, ptr %7, align 4, !tbaa !16
  %9 = load ptr, ptr %4, align 8, !tbaa !3
  %10 = getelementptr inbounds nuw %struct.sfparse_parser, ptr %9, i32 0, i32 0
  %11 = load ptr, ptr %10, align 8, !tbaa !17
  %12 = load i8, ptr %11, align 1, !tbaa !18
  %13 = zext i8 %12 to i32
  %14 = icmp eq i32 34, %13
  br i1 %14, label %15, label %16

15:                                               ; preds = %2
  br label %17

16:                                               ; preds = %2
  call void @__assert_fail(ptr noundef @.str.4, ptr noundef @.str.1, i32 noundef 685, ptr noundef @__PRETTY_FUNCTION__.parser_string) #6
  unreachable

17:                                               ; preds = %15
  %18 = load ptr, ptr %4, align 8, !tbaa !3
  %19 = getelementptr inbounds nuw %struct.sfparse_parser, ptr %18, i32 0, i32 0
  %20 = load ptr, ptr %19, align 8, !tbaa !17
  %21 = getelementptr inbounds nuw i8, ptr %20, i32 1
  store ptr %21, ptr %19, align 8, !tbaa !17
  store ptr %21, ptr %6, align 8, !tbaa !25
  br label %22

22:                                               ; preds = %55, %17
  %23 = load ptr, ptr %4, align 8, !tbaa !3
  %24 = call i32 @parser_eof(ptr noundef %23)
  %25 = icmp ne i32 %24, 0
  %26 = xor i1 %25, true
  br i1 %26, label %27, label %60

27:                                               ; preds = %22
  %28 = load ptr, ptr %4, align 8, !tbaa !3
  %29 = getelementptr inbounds nuw %struct.sfparse_parser, ptr %28, i32 0, i32 0
  %30 = load ptr, ptr %29, align 8, !tbaa !17
  %31 = load i8, ptr %30, align 1, !tbaa !18
  %32 = zext i8 %31 to i32
  switch i32 %32, label %53 [
    i32 32, label %33
    i32 33, label %33
    i32 35, label %33
    i32 36, label %33
    i32 37, label %33
    i32 38, label %33
    i32 39, label %33
    i32 40, label %33
    i32 41, label %33
    i32 42, label %33
    i32 43, label %33
    i32 44, label %33
    i32 45, label %33
    i32 46, label %33
    i32 47, label %33
    i32 48, label %33
    i32 49, label %33
    i32 50, label %33
    i32 51, label %33
    i32 52, label %33
    i32 53, label %33
    i32 54, label %33
    i32 55, label %33
    i32 56, label %33
    i32 57, label %33
    i32 58, label %33
    i32 59, label %33
    i32 60, label %33
    i32 61, label %33
    i32 62, label %33
    i32 63, label %33
    i32 64, label %33
    i32 65, label %33
    i32 66, label %33
    i32 67, label %33
    i32 68, label %33
    i32 69, label %33
    i32 70, label %33
    i32 71, label %33
    i32 72, label %33
    i32 73, label %33
    i32 74, label %33
    i32 75, label %33
    i32 76, label %33
    i32 77, label %33
    i32 78, label %33
    i32 79, label %33
    i32 80, label %33
    i32 81, label %33
    i32 82, label %33
    i32 83, label %33
    i32 84, label %33
    i32 85, label %33
    i32 86, label %33
    i32 87, label %33
    i32 88, label %33
    i32 89, label %33
    i32 90, label %33
    i32 91, label %33
    i32 93, label %33
    i32 94, label %33
    i32 95, label %33
    i32 96, label %33
    i32 97, label %33
    i32 98, label %33
    i32 99, label %33
    i32 100, label %33
    i32 101, label %33
    i32 102, label %33
    i32 103, label %33
    i32 104, label %33
    i32 105, label %33
    i32 106, label %33
    i32 107, label %33
    i32 108, label %33
    i32 109, label %33
    i32 110, label %33
    i32 111, label %33
    i32 112, label %33
    i32 113, label %33
    i32 114, label %33
    i32 115, label %33
    i32 116, label %33
    i32 117, label %33
    i32 118, label %33
    i32 119, label %33
    i32 120, label %33
    i32 121, label %33
    i32 122, label %33
    i32 123, label %33
    i32 124, label %33
    i32 125, label %33
    i32 126, label %33
    i32 92, label %34
    i32 34, label %52
  ]

33:                                               ; preds = %27, %27, %27, %27, %27, %27, %27, %27, %27, %27, %27, %27, %27, %27, %27, %27, %27, %27, %27, %27, %27, %27, %27, %27, %27, %27, %27, %27, %27, %27, %27, %27, %27, %27, %27, %27, %27, %27, %27, %27, %27, %27, %27, %27, %27, %27, %27, %27, %27, %27, %27, %27, %27, %27, %27, %27, %27, %27, %27, %27, %27, %27, %27, %27, %27, %27, %27, %27, %27, %27, %27, %27, %27, %27, %27, %27, %27, %27, %27, %27, %27, %27, %27, %27, %27, %27, %27, %27, %27, %27, %27, %27, %27
  br label %54

34:                                               ; preds = %27
  %35 = load ptr, ptr %4, align 8, !tbaa !3
  %36 = getelementptr inbounds nuw %struct.sfparse_parser, ptr %35, i32 0, i32 0
  %37 = load ptr, ptr %36, align 8, !tbaa !17
  %38 = getelementptr inbounds nuw i8, ptr %37, i32 1
  store ptr %38, ptr %36, align 8, !tbaa !17
  %39 = load ptr, ptr %4, align 8, !tbaa !3
  %40 = call i32 @parser_eof(ptr noundef %39)
  %41 = icmp ne i32 %40, 0
  br i1 %41, label %42, label %43

42:                                               ; preds = %34
  store i32 -1, ptr %3, align 4
  store i32 1, ptr %8, align 4
  br label %98

43:                                               ; preds = %34
  %44 = load ptr, ptr %4, align 8, !tbaa !3
  %45 = getelementptr inbounds nuw %struct.sfparse_parser, ptr %44, i32 0, i32 0
  %46 = load ptr, ptr %45, align 8, !tbaa !17
  %47 = load i8, ptr %46, align 1, !tbaa !18
  %48 = zext i8 %47 to i32
  switch i32 %48, label %50 [
    i32 34, label %49
    i32 92, label %49
  ]

49:                                               ; preds = %43, %43
  store i32 1, ptr %7, align 4, !tbaa !16
  br label %51

50:                                               ; preds = %43
  store i32 -1, ptr %3, align 4
  store i32 1, ptr %8, align 4
  br label %98

51:                                               ; preds = %49
  br label %54

52:                                               ; preds = %27
  br label %61

53:                                               ; preds = %27
  store i32 -1, ptr %3, align 4
  store i32 1, ptr %8, align 4
  br label %98

54:                                               ; preds = %51, %33
  br label %55

55:                                               ; preds = %54
  %56 = load ptr, ptr %4, align 8, !tbaa !3
  %57 = getelementptr inbounds nuw %struct.sfparse_parser, ptr %56, i32 0, i32 0
  %58 = load ptr, ptr %57, align 8, !tbaa !17
  %59 = getelementptr inbounds nuw i8, ptr %58, i32 1
  store ptr %59, ptr %57, align 8, !tbaa !17
  br label %22, !llvm.loop !37

60:                                               ; preds = %22
  store i32 -1, ptr %3, align 4
  store i32 1, ptr %8, align 4
  br label %98

61:                                               ; preds = %52
  %62 = load ptr, ptr %5, align 8, !tbaa !10
  %63 = icmp ne ptr %62, null
  br i1 %63, label %64, label %93

64:                                               ; preds = %61
  %65 = load ptr, ptr %5, align 8, !tbaa !10
  %66 = getelementptr inbounds nuw %struct.sfparse_value, ptr %65, i32 0, i32 0
  store i32 3, ptr %66, align 8, !tbaa !19
  %67 = load i32, ptr %7, align 4, !tbaa !16
  %68 = load ptr, ptr %5, align 8, !tbaa !10
  %69 = getelementptr inbounds nuw %struct.sfparse_value, ptr %68, i32 0, i32 1
  store i32 %67, ptr %69, align 4, !tbaa !21
  %70 = load ptr, ptr %4, align 8, !tbaa !3
  %71 = getelementptr inbounds nuw %struct.sfparse_parser, ptr %70, i32 0, i32 0
  %72 = load ptr, ptr %71, align 8, !tbaa !17
  %73 = load ptr, ptr %6, align 8, !tbaa !25
  %74 = ptrtoint ptr %72 to i64
  %75 = ptrtoint ptr %73 to i64
  %76 = sub i64 %74, %75
  %77 = load ptr, ptr %5, align 8, !tbaa !10
  %78 = getelementptr inbounds nuw %struct.sfparse_value, ptr %77, i32 0, i32 2
  %79 = getelementptr inbounds nuw %struct.sfparse_vec, ptr %78, i32 0, i32 1
  store i64 %76, ptr %79, align 8, !tbaa !18
  %80 = load ptr, ptr %5, align 8, !tbaa !10
  %81 = getelementptr inbounds nuw %struct.sfparse_value, ptr %80, i32 0, i32 2
  %82 = getelementptr inbounds nuw %struct.sfparse_vec, ptr %81, i32 0, i32 1
  %83 = load i64, ptr %82, align 8, !tbaa !18
  %84 = icmp eq i64 %83, 0
  br i1 %84, label %85, label %86

85:                                               ; preds = %64
  br label %88

86:                                               ; preds = %64
  %87 = load ptr, ptr %6, align 8, !tbaa !25
  br label %88

88:                                               ; preds = %86, %85
  %89 = phi ptr [ null, %85 ], [ %87, %86 ]
  %90 = load ptr, ptr %5, align 8, !tbaa !10
  %91 = getelementptr inbounds nuw %struct.sfparse_value, ptr %90, i32 0, i32 2
  %92 = getelementptr inbounds nuw %struct.sfparse_vec, ptr %91, i32 0, i32 0
  store ptr %89, ptr %92, align 8, !tbaa !18
  br label %93

93:                                               ; preds = %88, %61
  %94 = load ptr, ptr %4, align 8, !tbaa !3
  %95 = getelementptr inbounds nuw %struct.sfparse_parser, ptr %94, i32 0, i32 0
  %96 = load ptr, ptr %95, align 8, !tbaa !17
  %97 = getelementptr inbounds nuw i8, ptr %96, i32 1
  store ptr %97, ptr %95, align 8, !tbaa !17
  store i32 0, ptr %3, align 4
  store i32 1, ptr %8, align 4
  br label %98

98:                                               ; preds = %93, %60, %53, %50, %42
  call void @llvm.lifetime.end.p0(i64 4, ptr %7) #5
  call void @llvm.lifetime.end.p0(i64 8, ptr %6) #5
  %99 = load i32, ptr %3, align 4
  ret i32 %99
}