; Function Attrs: nounwind uwtable
define internal fastcc range(i32 -1, 1) i32 @parser_string(ptr noundef captures(none) %0, ptr noundef writeonly %1) unnamed_addr #0 {
  %3 = load ptr, ptr %0, align 8, !tbaa !10
  %4 = load i8, ptr %3, align 1, !tbaa !12
  %5 = icmp eq i8 %4, 34
  br i1 %5, label %7, label %6

6:                                                ; preds = %2
  tail call void @__assert_fail(ptr noundef nonnull @.str.4, ptr noundef nonnull @.str.1, i32 noundef 685, ptr noundef nonnull @__PRETTY_FUNCTION__.parser_string) #8
  unreachable

7:                                                ; preds = %2
  %.ptr = getelementptr inbounds nuw i8, ptr %3, i64 1
  %8 = getelementptr i8, ptr %0, i64 8
  %.val25 = load ptr, ptr %8, align 8, !tbaa !11
  store ptr %.ptr, ptr %0, align 8, !tbaa !10
  %.not30 = icmp eq ptr %.ptr, %.val25
  br i1 %.not30, label %.loopexit, label %.lr.ph

.lr.ph:                                           ; preds = %7, %14
  %9 = phi ptr [ %.ptr36, %14 ], [ %.ptr, %7 ]
  %.032 = phi i32 [ %.1, %14 ], [ 0, %7 ]
  %storemerge31.idx = phi i64 [ %storemerge29.add, %14 ], [ 1, %7 ]
  %storemerge31.ptr = getelementptr inbounds nuw i8, ptr %3, i64 %storemerge31.idx
  %10 = load i8, ptr %storemerge31.ptr, align 1, !tbaa !12
  switch i8 %10, label %.loopexit [
    i8 32, label %14
    i8 33, label %14
    i8 35, label %14
    i8 36, label %14
    i8 37, label %14
    i8 38, label %14
    i8 39, label %14
    i8 40, label %14
    i8 41, label %14
    i8 42, label %14
    i8 43, label %14
    i8 44, label %14
    i8 45, label %14
    i8 46, label %14
    i8 47, label %14
    i8 48, label %14
    i8 49, label %14
    i8 50, label %14
    i8 51, label %14
    i8 52, label %14
    i8 53, label %14
    i8 54, label %14
    i8 55, label %14
    i8 56, label %14
    i8 57, label %14
    i8 58, label %14
    i8 59, label %14
    i8 60, label %14
    i8 61, label %14
    i8 62, label %14
    i8 63, label %14
    i8 64, label %14
    i8 65, label %14
    i8 66, label %14
    i8 67, label %14
    i8 68, label %14
    i8 69, label %14
    i8 70, label %14
    i8 71, label %14
    i8 72, label %14
    i8 73, label %14
    i8 74, label %14
    i8 75, label %14
    i8 76, label %14
    i8 77, label %14
    i8 78, label %14
    i8 79, label %14
    i8 80, label %14
    i8 81, label %14
    i8 82, label %14
    i8 83, label %14
    i8 84, label %14
    i8 85, label %14
    i8 86, label %14
    i8 87, label %14
    i8 88, label %14
    i8 89, label %14
    i8 90, label %14
    i8 91, label %14
    i8 93, label %14
    i8 94, label %14
    i8 95, label %14
    i8 96, label %14
    i8 97, label %14
    i8 98, label %14
    i8 99, label %14
    i8 100, label %14
    i8 101, label %14
    i8 102, label %14
    i8 103, label %14
    i8 104, label %14
    i8 105, label %14
    i8 106, label %14
    i8 107, label %14
    i8 108, label %14
    i8 109, label %14
    i8 110, label %14
    i8 111, label %14
    i8 112, label %14
    i8 113, label %14
    i8 114, label %14
    i8 115, label %14
    i8 116, label %14
    i8 117, label %14
    i8 118, label %14
    i8 119, label %14
    i8 120, label %14
    i8 121, label %14
    i8 122, label %14
    i8 123, label %14
    i8 124, label %14
    i8 125, label %14
    i8 126, label %14
    i8 92, label %11
    i8 34, label %15
  ]

11:                                               ; preds = %.lr.ph
  %storemerge31.add = add nuw nsw i64 %storemerge31.idx, 1
  %.ptr37 = getelementptr inbounds nuw i8, ptr %3, i64 %storemerge31.add
  store ptr %.ptr37, ptr %0, align 8, !tbaa !10
  %.not26 = icmp eq ptr %.ptr37, %.val25
  br i1 %.not26, label %.loopexit, label %12

12:                                               ; preds = %11
  %13 = load i8, ptr %.ptr37, align 1, !tbaa !12
  switch i8 %13, label %.loopexit [
    i8 34, label %14
    i8 92, label %14
  ]

14:                                               ; preds = %12, %12, %.lr.ph, %.lr.ph, %.lr.ph, %.lr.ph, %.lr.ph, %.lr.ph, %.lr.ph, %.lr.ph, %.lr.ph, %.lr.ph, %.lr.ph, %.lr.ph, %.lr.ph, %.lr.ph, %.lr.ph, %.lr.ph, %.lr.ph, %.lr.ph, %.lr.ph, %.lr.ph, %.lr.ph, %.lr.ph, %.lr.ph, %.lr.ph, %.lr.ph, %.lr.ph, %.lr.ph, %.lr.ph, %.lr.ph, %.lr.ph, %.lr.ph, %.lr.ph, %.lr.ph, %.lr.ph, %.lr.ph, %.lr.ph, %.lr.ph, %.lr.ph, %.lr.ph, %.lr.ph, %.lr.ph, %.lr.ph, %.lr.ph, %.lr.ph, %.lr.ph, %.lr.ph, %.lr.ph, %.lr.ph, %.lr.ph, %.lr.ph, %.lr.ph, %.lr.ph, %.lr.ph, %.lr.ph, %.lr.ph, %.lr.ph, %.lr.ph, %.lr.ph, %.lr.ph, %.lr.ph, %.lr.ph, %.lr.ph, %.lr.ph, %.lr.ph, %.lr.ph, %.lr.ph, %.lr.ph, %.lr.ph, %.lr.ph, %.lr.ph, %.lr.ph, %.lr.ph, %.lr.ph, %.lr.ph, %.lr.ph, %.lr.ph, %.lr.ph, %.lr.ph, %.lr.ph, %.lr.ph, %.lr.ph, %.lr.ph, %.lr.ph, %.lr.ph, %.lr.ph, %.lr.ph, %.lr.ph, %.lr.ph, %.lr.ph, %.lr.ph, %.lr.ph, %.lr.ph, %.lr.ph
  %storemerge29.idx = phi i64 [ %storemerge31.idx, %.lr.ph ], [ %storemerge31.idx, %.lr.ph ], [ %storemerge31.idx, %.lr.ph ], [ %storemerge31.idx, %.lr.ph ], [ %storemerge31.idx, %.lr.ph ], [ %storemerge31.idx, %.lr.ph ], [ %storemerge31.idx, %.lr.ph ], [ %storemerge31.idx, %.lr.ph ], [ %storemerge31.idx, %.lr.ph ], [ %storemerge31.idx, %.lr.ph ], [ %storemerge31.idx, %.lr.ph ], [ %storemerge31.idx, %.lr.ph ], [ %storemerge31.idx, %.lr.ph ], [ %storemerge31.idx, %.lr.ph ], [ %storemerge31.idx, %.lr.ph ], [ %storemerge31.idx, %.lr.ph ], [ %storemerge31.idx, %.lr.ph ], [ %storemerge31.idx, %.lr.ph ], [ %storemerge31.idx, %.lr.ph ], [ %storemerge31.idx, %.lr.ph ], [ %storemerge31.idx, %.lr.ph ], [ %storemerge31.idx, %.lr.ph ], [ %storemerge31.idx, %.lr.ph ], [ %storemerge31.idx, %.lr.ph ], [ %storemerge31.idx, %.lr.ph ], [ %storemerge31.idx, %.lr.ph ], [ %storemerge31.idx, %.lr.ph ], [ %storemerge31.idx, %.lr.ph ], [ %storemerge31.idx, %.lr.ph ], [ %storemerge31.idx, %.lr.ph ], [ %storemerge31.idx, %.lr.ph ], [ %storemerge31.idx, %.lr.ph ], [ %storemerge31.idx, %.lr.ph ], [ %storemerge31.idx, %.lr.ph ], [ %storemerge31.idx, %.lr.ph ], [ %storemerge31.idx, %.lr.ph ], [ %storemerge31.idx, %.lr.ph ], [ %storemerge31.idx, %.lr.ph ], [ %storemerge31.idx, %.lr.ph ], [ %storemerge31.idx, %.lr.ph ], [ %storemerge31.idx, %.lr.ph ], [ %storemerge31.idx, %.lr.ph ], [ %storemerge31.idx, %.lr.ph ], [ %storemerge31.idx, %.lr.ph ], [ %storemerge31.idx, %.lr.ph ], [ %storemerge31.idx, %.lr.ph ], [ %storemerge31.idx, %.lr.ph ], [ %storemerge31.idx, %.lr.ph ], [ %storemerge31.idx, %.lr.ph ], [ %storemerge31.idx, %.lr.ph ], [ %storemerge31.idx, %.lr.ph ], [ %storemerge31.idx, %.lr.ph ], [ %storemerge31.idx, %.lr.ph ], [ %storemerge31.idx, %.lr.ph ], [ %storemerge31.idx, %.lr.ph ], [ %storemerge31.idx, %.lr.ph ], [ %storemerge31.idx, %.lr.ph ], [ %storemerge31.idx, %.lr.ph ], [ %storemerge31.idx, %.lr.ph ], [ %storemerge31.idx, %.lr.ph ], [ %storemerge31.idx, %.lr.ph ], [ %storemerge31.idx, %.lr.ph ], [ %storemerge31.idx, %.lr.ph ], [ %storemerge31.idx, %.lr.ph ], [ %storemerge31.idx, %.lr.ph ], [ %storemerge31.idx, %.lr.ph ], [ %storemerge31.idx, %.lr.ph ], [ %storemerge31.idx, %.lr.ph ], [ %storemerge31.idx, %.lr.ph ], [ %storemerge31.idx, %.lr.ph ], [ %storemerge31.idx, %.lr.ph ], [ %storemerge31.idx, %.lr.ph ], [ %storemerge31.idx, %.lr.ph ], [ %storemerge31.idx, %.lr.ph ], [ %storemerge31.idx, %.lr.ph ], [ %storemerge31.idx, %.lr.ph ], [ %storemerge31.idx, %.lr.ph ], [ %storemerge31.idx, %.lr.ph ], [ %storemerge31.idx, %.lr.ph ], [ %storemerge31.idx, %.lr.ph ], [ %storemerge31.idx, %.lr.ph ], [ %storemerge31.idx, %.lr.ph ], [ %storemerge31.idx, %.lr.ph ], [ %storemerge31.idx, %.lr.ph ], [ %storemerge31.idx, %.lr.ph ], [ %storemerge31.idx, %.lr.ph ], [ %storemerge31.idx, %.lr.ph ], [ %storemerge31.idx, %.lr.ph ], [ %storemerge31.idx, %.lr.ph ], [ %storemerge31.idx, %.lr.ph ], [ %storemerge31.idx, %.lr.ph ], [ %storemerge31.idx, %.lr.ph ], [ %storemerge31.idx, %.lr.ph ], [ %storemerge31.add, %12 ], [ %storemerge31.add, %12 ]
  %.1 = phi i32 [ %.032, %.lr.ph ], [ %.032, %.lr.ph ], [ %.032, %.lr.ph ], [ %.032, %.lr.ph ], [ %.032, %.lr.ph ], [ %.032, %.lr.ph ], [ %.032, %.lr.ph ], [ %.032, %.lr.ph ], [ %.032, %.lr.ph ], [ %.032, %.lr.ph ], [ %.032, %.lr.ph ], [ %.032, %.lr.ph ], [ %.032, %.lr.ph ], [ %.032, %.lr.ph ], [ %.032, %.lr.ph ], [ %.032, %.lr.ph ], [ %.032, %.lr.ph ], [ %.032, %.lr.ph ], [ %.032, %.lr.ph ], [ %.032, %.lr.ph ], [ %.032, %.lr.ph ], [ %.032, %.lr.ph ], [ %.032, %.lr.ph ], [ %.032, %.lr.ph ], [ %.032, %.lr.ph ], [ %.032, %.lr.ph ], [ %.032, %.lr.ph ], [ %.032, %.lr.ph ], [ %.032, %.lr.ph ], [ %.032, %.lr.ph ], [ %.032, %.lr.ph ], [ %.032, %.lr.ph ], [ %.032, %.lr.ph ], [ %.032, %.lr.ph ], [ %.032, %.lr.ph ], [ %.032, %.lr.ph ], [ %.032, %.lr.ph ], [ %.032, %.lr.ph ], [ %.032, %.lr.ph ], [ %.032, %.lr.ph ], [ %.032, %.lr.ph ], [ %.032, %.lr.ph ], [ %.032, %.lr.ph ], [ %.032, %.lr.ph ], [ %.032, %.lr.ph ], [ %.032, %.lr.ph ], [ %.032, %.lr.ph ], [ %.032, %.lr.ph ], [ %.032, %.lr.ph ], [ %.032, %.lr.ph ], [ %.032, %.lr.ph ], [ %.032, %.lr.ph ], [ %.032, %.lr.ph ], [ %.032, %.lr.ph ], [ %.032, %.lr.ph ], [ %.032, %.lr.ph ], [ %.032, %.lr.ph ], [ %.032, %.lr.ph ], [ %.032, %.lr.ph ], [ %.032, %.lr.ph ], [ %.032, %.lr.ph ], [ %.032, %.lr.ph ], [ %.032, %.lr.ph ], [ %.032, %.lr.ph ], [ %.032, %.lr.ph ], [ %.032, %.lr.ph ], [ %.032, %.lr.ph ], [ %.032, %.lr.ph ], [ %.032, %.lr.ph ], [ %.032, %.lr.ph ], [ %.032, %.lr.ph ], [ %.032, %.lr.ph ], [ %.032, %.lr.ph ], [ %.032, %.lr.ph ], [ %.032, %.lr.ph ], [ %.032, %.lr.ph ], [ %.032, %.lr.ph ], [ %.032, %.lr.ph ], [ %.032, %.lr.ph ], [ %.032, %.lr.ph ], [ %.032, %.lr.ph ], [ %.032, %.lr.ph ], [ %.032, %.lr.ph ], [ %.032, %.lr.ph ], [ %.032, %.lr.ph ], [ %.032, %.lr.ph ], [ %.032, %.lr.ph ], [ %.032, %.lr.ph ], [ %.032, %.lr.ph ], [ %.032, %.lr.ph ], [ %.032, %.lr.ph ], [ %.032, %.lr.ph ], [ %.032, %.lr.ph ], [ 1, %12 ], [ 1, %12 ]
  %storemerge29.add = add nuw nsw i64 %storemerge29.idx, 1
  %.ptr36 = getelementptr inbounds nuw i8, ptr %3, i64 %storemerge29.add
  store ptr %.ptr36, ptr %0, align 8, !tbaa !10
  %.not = icmp eq ptr %.ptr36, %.val25
  br i1 %.not, label %.loopexit, label %.lr.ph, !llvm.loop !28

15:                                               ; preds = %.lr.ph
  %.not21 = icmp eq ptr %1, null
  br i1 %.not21, label %22, label %16

16:                                               ; preds = %15
  store i32 3, ptr %1, align 8, !tbaa !15
  %17 = getelementptr inbounds nuw i8, ptr %1, i64 4
  store i32 %.032, ptr %17, align 4, !tbaa !17
  %gepdiff = add nsw i64 %storemerge31.idx, -1
  %18 = getelementptr inbounds nuw i8, ptr %1, i64 8
  %19 = getelementptr inbounds nuw i8, ptr %1, i64 16
  store i64 %gepdiff, ptr %19, align 8, !tbaa !12
  %20 = icmp eq i64 %storemerge31.idx, 1
  %21 = select i1 %20, ptr null, ptr %.ptr
  store ptr %21, ptr %18, align 8, !tbaa !12
  %.pre = load ptr, ptr %0, align 8, !tbaa !10
  br label %22

22:                                               ; preds = %16, %15
  %23 = phi ptr [ %.pre, %16 ], [ %9, %15 ]
  %24 = getelementptr inbounds nuw i8, ptr %23, i64 1
  store ptr %24, ptr %0, align 8, !tbaa !10
  br label %.loopexit

.loopexit:                                        ; preds = %11, %12, %.lr.ph, %14, %7, %22
  %.019 = phi i32 [ 0, %22 ], [ -1, %7 ], [ -1, %14 ], [ -1, %.lr.ph ], [ -1, %12 ], [ -1, %11 ]
  ret i32 %.019
}